target datalayout = "e-m:e-p270:32:32-p271:32:32-p272:64:64-i64:64-i128:128-f80:128-n8:16:32:64-S128"
target triple = "x86_64-pc-linux-gnu"

%struct.SHA1_CTX = type { i64, [5 x i32], [64 x i8], i32, i32, i32, i32, i32, ptr, [5 x i32], [5 x i32], [80 x i32], [80 x i32], [80 x [5 x i32]] }

; Function Attrs: nounwind uwtable
define dso_local void @SHA1DCInit(ptr noundef %0) #0 {
  %2 = alloca ptr, align 8
  store ptr %0, ptr %2, align 8, !tbaa !11
  %3 = load ptr, ptr %2, align 8, !tbaa !11
  %4 = getelementptr inbounds nuw %struct.SHA1_CTX, ptr %3, i32 0, i32 0
  store i64 0, ptr %4, align 8, !tbaa !12
  %5 = load ptr, ptr %2, align 8, !tbaa !11
  %6 = getelementptr inbounds nuw %struct.SHA1_CTX, ptr %5, i32 0, i32 1
  %7 = getelementptr inbounds [5 x i32], ptr %6, i64 0, i64 0
  store i32 1732584193, ptr %7, align 8, !tbaa !9
  %8 = load ptr, ptr %2, align 8, !tbaa !11
  %9 = getelementptr inbounds nuw %struct.SHA1_CTX, ptr %8, i32 0, i32 1
  %10 = getelementptr inbounds [5 x i32], ptr %9, i64 0, i64 1
  store i32 -271733879, ptr %10, align 4, !tbaa !9
  %11 = load ptr, ptr %2, align 8, !tbaa !11
  %12 = getelementptr inbounds nuw %struct.SHA1_CTX, ptr %11, i32 0, i32 1
  %13 = getelementptr inbounds [5 x i32], ptr %12, i64 0, i64 2
  store i32 -1732584194, ptr %13, align 8, !tbaa !9
  %14 = load ptr, ptr %2, align 8, !tbaa !11
  %15 = getelementptr inbounds nuw %struct.SHA1_CTX, ptr %14, i32 0, i32 1
  %16 = getelementptr inbounds [5 x i32], ptr %15, i64 0, i64 3
  store i32 271733878, ptr %16, align 4, !tbaa !9
  %17 = load ptr, ptr %2, align 8, !tbaa !11
  %18 = getelementptr inbounds nuw %struct.SHA1_CTX, ptr %17, i32 0, i32 1
  %19 = getelementptr inbounds [5 x i32], ptr %18, i64 0, i64 4
  store i32 -1009589776, ptr %19, align 8, !tbaa !9
  %20 = load ptr, ptr %2, align 8, !tbaa !11
  %21 = getelementptr inbounds nuw %struct.SHA1_CTX, ptr %20, i32 0, i32 3
  store i32 0, ptr %21, align 4, !tbaa !15
  %22 = load ptr, ptr %2, align 8, !tbaa !11
  %23 = getelementptr inbounds nuw %struct.SHA1_CTX, ptr %22, i32 0, i32 4
  store i32 0, ptr %23, align 8, !tbaa !16
  %24 = load ptr, ptr %2, align 8, !tbaa !11
  %25 = getelementptr inbounds nuw %struct.SHA1_CTX, ptr %24, i32 0, i32 6
  store i32 1, ptr %25, align 8, !tbaa !17
  %26 = load ptr, ptr %2, align 8, !tbaa !11
  %27 = getelementptr inbounds nuw %struct.SHA1_CTX, ptr %26, i32 0, i32 5
  store i32 1, ptr %27, align 4, !tbaa !18
  %28 = load ptr, ptr %2, align 8, !tbaa !11
  %29 = getelementptr inbounds nuw %struct.SHA1_CTX, ptr %28, i32 0, i32 7
  store i32 0, ptr %29, align 4, !tbaa !19
  %30 = load ptr, ptr %2, align 8, !tbaa !11
  %31 = getelementptr inbounds nuw %struct.SHA1_CTX, ptr %30, i32 0, i32 8
  store ptr null, ptr %31, align 8, !tbaa !20
  ret void
}