; Function Attrs: mustprogress nofree norecurse nosync nounwind willreturn memory(argmem: write) uwtable
define dso_local void @SHA1DCInit(ptr noundef writeonly captures(none) initializes((0, 28), (92, 120)) %0) local_unnamed_addr #2 {
  store i64 0, ptr %0, align 8, !tbaa !8
  %2 = getelementptr inbounds nuw i8, ptr %0, i64 8
  store i32 1732584193, ptr %2, align 8, !tbaa !4
  %3 = getelementptr inbounds nuw i8, ptr %0, i64 12
  store i32 -271733879, ptr %3, align 4, !tbaa !4
  %4 = getelementptr inbounds nuw i8, ptr %0, i64 16
  store i32 -1732584194, ptr %4, align 8, !tbaa !4
  %5 = getelementptr inbounds nuw i8, ptr %0, i64 20
  store i32 271733878, ptr %5, align 4, !tbaa !4
  %6 = getelementptr inbounds nuw i8, ptr %0, i64 24
  store i32 -1009589776, ptr %6, align 8, !tbaa !4
  %7 = getelementptr inbounds nuw i8, ptr %0, i64 92
  store i32 0, ptr %7, align 4, !tbaa !12
  %8 = getelementptr inbounds nuw i8, ptr %0, i64 96
  store i32 0, ptr %8, align 8, !tbaa !13
  %9 = getelementptr inbounds nuw i8, ptr %0, i64 104
  store i32 1, ptr %9, align 8, !tbaa !14
  %10 = getelementptr inbounds nuw i8, ptr %0, i64 100
  store i32 1, ptr %10, align 4, !tbaa !15
  %11 = getelementptr inbounds nuw i8, ptr %0, i64 108
  store i32 0, ptr %11, align 4, !tbaa !16
  %12 = getelementptr inbounds nuw i8, ptr %0, i64 112
  store ptr null, ptr %12, align 8, !tbaa !17
  ret void
}